; Function Attrs: mustprogress uwtable
define hidden void @_ZN7nanogui6Window14perform_layoutEP10NVGcontext(ptr noundef nonnull align 8 dereferenceable(186) %0, ptr noundef %1) unnamed_addr #0 align 2 {
  %3 = getelementptr inbounds i8, ptr %0, i64 176
  %4 = load ptr, ptr %3, align 8
  %.not = icmp eq ptr %4, null
  br i1 %.not, label %5, label %6

5:                                                ; preds = %2
  tail call void @_ZN7nanogui6Widget14perform_layoutEP10NVGcontext(ptr noundef nonnull align 8 dereferenceable(140) %0, ptr noundef %1)
  br label %35

6:                                                ; preds = %2
  %7 = getelementptr inbounds i8, ptr %4, i64 88
  store i8 0, ptr %7, align 8
  tail call void @_ZN7nanogui6Widget14perform_layoutEP10NVGcontext(ptr noundef nonnull align 8 dereferenceable(140) %0, ptr noundef %1)
  %8 = load ptr, ptr %3, align 8
  %9 = getelementptr inbounds i8, ptr %8, i64 64
  %10 = load ptr, ptr %9, align 8
  %11 = getelementptr inbounds i8, ptr %8, i64 72
  %12 = load ptr, ptr %11, align 8
  %.not1920 = icmp eq ptr %10, %12
  br i1 %.not1920, label %._crit_edge, label %.lr.ph

.lr.ph:                                           ; preds = %6, %.lr.ph
  %.sroa.016.021 = phi ptr [ %16, %.lr.ph ], [ %10, %6 ]
  %13 = load ptr, ptr %.sroa.016.021, align 8
  %14 = getelementptr inbounds i8, ptr %13, i64 56
  store i64 94489280534, ptr %14, align 8
  %15 = getelementptr inbounds i8, ptr %13, i64 128
  store i32 15, ptr %15, align 8
  %16 = getelementptr inbounds i8, ptr %.sroa.016.021, i64 8
  %.not19 = icmp eq ptr %16, %12
  br i1 %.not19, label %._crit_edge.loopexit, label %.lr.ph

._crit_edge.loopexit:                             ; preds = %.lr.ph
  %.pre = load ptr, ptr %3, align 8
  br label %._crit_edge

._crit_edge:                                      ; preds = %._crit_edge.loopexit, %6
  %17 = phi ptr [ %.pre, %._crit_edge.loopexit ], [ %8, %6 ]
  %18 = getelementptr inbounds i8, ptr %17, i64 88
  store i8 1, ptr %18, align 8
  %19 = load ptr, ptr %3, align 8
  %20 = getelementptr inbounds i8, ptr %0, i64 48
  %21 = load i32, ptr %20, align 8
  %22 = getelementptr inbounds i8, ptr %19, i64 48
  %.sroa.011.0.insert.ext = zext i32 %21 to i64
  %.sroa.011.0.insert.insert = or disjoint i64 %.sroa.011.0.insert.ext, 94489280512
  store i64 %.sroa.011.0.insert.insert, ptr %22, align 8
  %23 = load ptr, ptr %3, align 8
  %24 = load i32, ptr %20, align 8
  %25 = load ptr, ptr %23, align 8
  %26 = getelementptr inbounds i8, ptr %25, i64 96
  %27 = load ptr, ptr %26, align 8
  %28 = tail call i64 %27(ptr noundef nonnull align 8 dereferenceable(140) %23, ptr noundef %1)
  %.sroa.0.0.extract.trunc = trunc i64 %28 to i32
  %.neg = add i32 %24, -5
  %29 = sub i32 %.neg, %.sroa.0.0.extract.trunc
  %30 = getelementptr inbounds i8, ptr %23, i64 40
  %.sroa.09.0.insert.ext = zext i32 %29 to i64
  %.sroa.09.0.insert.insert = or disjoint i64 %.sroa.09.0.insert.ext, 12884901888
  store i64 %.sroa.09.0.insert.insert, ptr %30, align 8
  %31 = load ptr, ptr %3, align 8
  %32 = load ptr, ptr %31, align 8
  %33 = getelementptr inbounds i8, ptr %32, i64 104
  %34 = load ptr, ptr %33, align 8
  tail call void %34(ptr noundef nonnull align 8 dereferenceable(140) %31, ptr noundef %1)
  br label %35

35:                                               ; preds = %._crit_edge, %5
  ret void
}